target datalayout = "e-m:e-p270:32:32-p271:32:32-p272:64:64-i64:64-i128:128-f80:128-n8:16:32:64-S128"
target triple = "x86_64-pc-linux-gnu"

; Function Attrs: mustprogress uwtable
define internal noundef i32 @_ZL7b_shiftP9lua_Stateji(ptr noundef %0, i32 noundef %1, i32 noundef %2) #0 {
  %4 = alloca ptr, align 8
  %5 = alloca i32, align 4
  %6 = alloca i32, align 4
  store ptr %0, ptr %4, align 8, !tbaa !4
  store i32 %1, ptr %5, align 4, !tbaa !9
  store i32 %2, ptr %6, align 4, !tbaa !9
  %7 = load i32, ptr %6, align 4, !tbaa !9
  %8 = icmp slt i32 %7, 0
  br i1 %8, label %9, label %22

9:                                                ; preds = %3
  %10 = load i32, ptr %6, align 4, !tbaa !9
  %11 = sub nsw i32 0, %10
  store i32 %11, ptr %6, align 4, !tbaa !9
  %12 = load i32, ptr %5, align 4, !tbaa !9
  %13 = and i32 %12, -1
  store i32 %13, ptr %5, align 4, !tbaa !9
  %14 = load i32, ptr %6, align 4, !tbaa !9
  %15 = icmp sge i32 %14, 32
  br i1 %15, label %16, label %17

16:                                               ; preds = %9
  store i32 0, ptr %5, align 4, !tbaa !9
  br label %21

17:                                               ; preds = %9
  %18 = load i32, ptr %6, align 4, !tbaa !9
  %19 = load i32, ptr %5, align 4, !tbaa !9
  %20 = lshr i32 %19, %18
  store i32 %20, ptr %5, align 4, !tbaa !9
  br label %21

21:                                               ; preds = %17, %16
  br label %33

22:                                               ; preds = %3
  %23 = load i32, ptr %6, align 4, !tbaa !9
  %24 = icmp sge i32 %23, 32
  br i1 %24, label %25, label %26

25:                                               ; preds = %22
  store i32 0, ptr %5, align 4, !tbaa !9
  br label %30

26:                                               ; preds = %22
  %27 = load i32, ptr %6, align 4, !tbaa !9
  %28 = load i32, ptr %5, align 4, !tbaa !9
  %29 = shl i32 %28, %27
  store i32 %29, ptr %5, align 4, !tbaa !9
  br label %30

30:                                               ; preds = %26, %25
  %31 = load i32, ptr %5, align 4, !tbaa !9
  %32 = and i32 %31, -1
  store i32 %32, ptr %5, align 4, !tbaa !9
  br label %33

33:                                               ; preds = %30, %21
  %34 = load ptr, ptr %4, align 8, !tbaa !4
  %35 = load i32, ptr %5, align 4, !tbaa !9
  call void @_Z16lua_pushunsignedP9lua_Statej(ptr noundef %34, i32 noundef %35)
  ret i32 1
}

; Function Attrs: mustprogress uwtable
define internal noundef i32 @_ZL8b_rshiftP9lua_State(ptr noundef %0) #0 {
  %2 = alloca ptr, align 8
  store ptr %0, ptr %2, align 8, !tbaa !4
  %3 = load ptr, ptr %2, align 8, !tbaa !4
  %4 = load ptr, ptr %2, align 8, !tbaa !4
  %5 = call noundef i32 @_Z18luaL_checkunsignedP9lua_Statei(ptr noundef %4, i32 noundef 1)
  %6 = load ptr, ptr %2, align 8, !tbaa !4
  %7 = call noundef i32 @_Z17luaL_checkintegerP9lua_Statei(ptr noundef %6, i32 noundef 2)
  %8 = sub nsw i32 0, %7
  %9 = call noundef i32 @_ZL7b_shiftP9lua_Stateji(ptr noundef %3, i32 noundef %5, i32 noundef %8)
  ret i32 %9
}