; Function Attrs: mustprogress uwtable
define internal noundef i32 @_ZL8b_rshiftP9lua_State(ptr noundef %0) #0 {
  %2 = tail call noundef i32 @_Z18luaL_checkunsignedP9lua_Statei(ptr noundef %0, i32 noundef 1)
  %3 = tail call noundef i32 @_Z17luaL_checkintegerP9lua_Statei(ptr noundef %0, i32 noundef 2)
  %4 = sub nsw i32 0, %3
  %5 = icmp sgt i32 %3, 0
  br i1 %5, label %6, label %9

6:                                                ; preds = %1
  %7 = icmp samesign ult i32 %4, -31
  %8 = lshr i32 %2, %3
  %spec.select = select i1 %7, i32 0, i32 %8
  br label %_ZL7b_shiftP9lua_Stateji.exit

9:                                                ; preds = %1
  %10 = icmp samesign ugt i32 %4, 31
  %11 = shl i32 %2, %4
  %.1.i = select i1 %10, i32 0, i32 %11
  br label %_ZL7b_shiftP9lua_Stateji.exit

_ZL7b_shiftP9lua_Stateji.exit:                    ; preds = %6, %9
  %.0.i = phi i32 [ %.1.i, %9 ], [ %spec.select, %6 ]
  tail call void @_Z16lua_pushunsignedP9lua_Statej(ptr noundef %0, i32 noundef %.0.i)
  ret i32 1
}